target datalayout = "e-m:e-p270:32:32-p271:32:32-p272:64:64-i64:64-i128:128-f80:128-n8:16:32:64-S128"
target triple = "x86_64-pc-linux-gnu"

%class.JVMCIEnv = type { ptr, i8, i8, ptr, i8, i8, ptr, i32, i32, ptr, ptr }
%class.JVMCIObject = type <{ ptr, i8, [7 x i8] }>

; Function Attrs: mustprogress nounwind uwtable
define linkonce_odr hidden void @_ZN12HotSpotJVMCI13InstalledCode14set_entryPointEP8JVMCIEnv11JVMCIObjectl(ptr noundef %0, ptr %1, i8 %2, i64 noundef %3) #1 comdat align 2 {
  %5 = alloca %class.JVMCIObject, align 8
  %6 = alloca ptr, align 8
  %7 = alloca i64, align 8
  %8 = alloca %class.JVMCIObject, align 8
  %9 = getelementptr inbounds { ptr, i8 }, ptr %5, i32 0, i32 0
  store ptr %1, ptr %9, align 8
  %10 = getelementptr inbounds { ptr, i8 }, ptr %5, i32 0, i32 1
  store i8 %2, ptr %10, align 8
  store ptr %0, ptr %6, align 8
  store i64 %3, ptr %7, align 8
  %11 = load ptr, ptr %6, align 8
  call void @llvm.memcpy.p0.p0.i64(ptr align 8 %8, ptr align 8 %5, i64 16, i1 false)
  %12 = getelementptr inbounds { ptr, i8 }, ptr %8, i32 0, i32 0
  %13 = load ptr, ptr %12, align 8
  %14 = getelementptr inbounds { ptr, i8 }, ptr %8, i32 0, i32 1
  %15 = load i8, ptr %14, align 8
  %16 = call noundef ptr @_ZN12HotSpotJVMCI7resolveE11JVMCIObject(ptr %13, i8 %15)
  %17 = load i64, ptr %7, align 8
  call void @_ZN12HotSpotJVMCI13InstalledCode14set_entryPointEP8JVMCIEnvP7oopDescl(ptr noundef %11, ptr noundef %16, i64 noundef %17)
  ret void
}

; Function Attrs: mustprogress nounwind uwtable
define linkonce_odr hidden noundef zeroext i1 @_ZN8JVMCIEnv10is_hotspotEv(ptr noundef nonnull align 8 dereferenceable(64) %0) #1 comdat align 2 {
  %2 = alloca ptr, align 8
  store ptr %0, ptr %2, align 8
  %3 = load ptr, ptr %2, align 8
  %4 = getelementptr inbounds %class.JVMCIEnv, ptr %3, i32 0, i32 4
  %5 = load i8, ptr %4, align 8
  %6 = trunc i8 %5 to i1
  ret i1 %6
}

; Function Attrs: mustprogress nounwind uwtable
define hidden void @_ZN8JVMCIEnv28set_InstalledCode_entryPointE11JVMCIObjectl(ptr noundef nonnull align 8 dereferenceable(64) %0, ptr %1, i8 %2, i64 noundef %3) #1 align 2 {
  %5 = alloca %class.JVMCIObject, align 8
  %6 = alloca ptr, align 8
  %7 = alloca i64, align 8
  %8 = alloca %class.JVMCIObject, align 8
  %9 = alloca %class.JVMCIObject, align 8
  %10 = getelementptr inbounds { ptr, i8 }, ptr %5, i32 0, i32 0
  store ptr %1, ptr %10, align 8
  %11 = getelementptr inbounds { ptr, i8 }, ptr %5, i32 0, i32 1
  store i8 %2, ptr %11, align 8
  store ptr %0, ptr %6, align 8
  store i64 %3, ptr %7, align 8
  %12 = load ptr, ptr %6, align 8
  %13 = call noundef zeroext i1 @_ZN8JVMCIEnv10is_hotspotEv(ptr noundef nonnull align 8 dereferenceable(64) %12)
  br i1 %13, label %14, label %20

14:                                               ; preds = %4
  call void @llvm.memcpy.p0.p0.i64(ptr align 8 %8, ptr align 8 %5, i64 16, i1 false)
  %15 = load i64, ptr %7, align 8
  %16 = getelementptr inbounds { ptr, i8 }, ptr %8, i32 0, i32 0
  %17 = load ptr, ptr %16, align 8
  %18 = getelementptr inbounds { ptr, i8 }, ptr %8, i32 0, i32 1
  %19 = load i8, ptr %18, align 8
  call void @_ZN12HotSpotJVMCI13InstalledCode14set_entryPointEP8JVMCIEnv11JVMCIObjectl(ptr noundef %12, ptr %17, i8 %19, i64 noundef %15)
  br label %26

20:                                               ; preds = %4
  call void @llvm.memcpy.p0.p0.i64(ptr align 8 %9, ptr align 8 %5, i64 16, i1 false)
  %21 = load i64, ptr %7, align 8
  %22 = getelementptr inbounds { ptr, i8 }, ptr %9, i32 0, i32 0
  %23 = load ptr, ptr %22, align 8
  %24 = getelementptr inbounds { ptr, i8 }, ptr %9, i32 0, i32 1
  %25 = load i8, ptr %24, align 8
  call void @_ZN8JNIJVMCI13InstalledCode14set_entryPointEP8JVMCIEnv11JVMCIObjectl(ptr noundef %12, ptr %23, i8 %25, i64 noundef %21)
  br label %26

26:                                               ; preds = %20, %14
  ret void
}